ARM GAS  C:\Users\floof\AppData\Local\Temp\ccjhebsl.s 			page 1


   1              		.syntax unified
   2              		.cpu cortex-m3
   3              		.fpu softvfp
   4              		.eabi_attribute 20, 1
   5              		.eabi_attribute 21, 1
   6              		.eabi_attribute 23, 3
   7              		.eabi_attribute 24, 1
   8              		.eabi_attribute 25, 1
   9              		.eabi_attribute 26, 1
  10              		.eabi_attribute 30, 1
  11              		.eabi_attribute 34, 1
  12              		.eabi_attribute 18, 4
  13              		.thumb
  14              		.file	"main.c"
  15              		.text
  16              	.Ltext0:
  17              		.cfi_sections	.debug_frame
  18              		.global	__aeabi_f2d
  19              		.global	__aeabi_dmul
  20              		.global	__aeabi_dadd
  21              		.global	__aeabi_d2f
  22              		.global	__aeabi_dcmpgt
  23              		.global	__aeabi_dsub
  24              		.global	__aeabi_fmul
  25              		.global	__aeabi_fadd
  26              		.global	__aeabi_f2uiz
  27              		.section	.text.DacSet,"ax",%progbits
  28              		.align	2
  29              		.global	DacSet
  30              		.thumb
  31              		.thumb_func
  32              		.type	DacSet, %function
  33              	DacSet:
  34              	.LFB64:
  35              		.file 1 ".\\main.c"
   1:.\main.c      **** /* ========================================
   2:.\main.c      ****  *
   3:.\main.c      ****  * Copyright YOUR COMPANY, THE YEAR
   4:.\main.c      ****  * All Rights Reserved
   5:.\main.c      ****  * UNPUBLISHED, LICENSED SOFTWARE.
   6:.\main.c      ****  *
   7:.\main.c      ****  * CONFIDENTIAL AND PROPRIETARY INFORMATION
   8:.\main.c      ****  * WHICH IS THE PROPERTY OF your company.
   9:.\main.c      ****  *
  10:.\main.c      ****  * ========================================
  11:.\main.c      **** */
  12:.\main.c      **** #include <project.h>
  13:.\main.c      **** #include <math.h>
  14:.\main.c      **** 
  15:.\main.c      **** CY_ISR_PROTO(DacSet);
  16:.\main.c      **** 
  17:.\main.c      **** float theta = 0;
  18:.\main.c      **** uint8_t DacCode = 0;
  19:.\main.c      **** uint8_t EnableOutput = 0;
  20:.\main.c      **** uint8_t UpDown = 0;
  21:.\main.c      **** 
  22:.\main.c      **** int main()
ARM GAS  C:\Users\floof\AppData\Local\Temp\ccjhebsl.s 			page 2


  23:.\main.c      **** {
  24:.\main.c      ****    
  25:.\main.c      ****     /* Place your initialization/startup code here (e.g. MyInst_Start()) */
  26:.\main.c      ****     VDAC8_1_Start();
  27:.\main.c      ****     isr_1_StartEx(DacSet);
  28:.\main.c      ****     
  29:.\main.c      ****     /*isr_1_SetPriority(DEFAULT_PRIORITY);
  30:.\main.c      ****     CyIntSetVector(NESTED_ISR,NestedIsrHandler);
  31:.\main.c      ****     CyIntSetPriority(NESTED_ISR,HIGHER_PRIORITY);
  32:.\main.c      ****     CyIntEnable(NESTED_ISR);*/
  33:.\main.c      ****     
  34:.\main.c      ****     CyGlobalIntEnable; /* Enable global interrupts. */
  35:.\main.c      ****     
  36:.\main.c      ****     for(;;)
  37:.\main.c      ****     {
  38:.\main.c      ****         /* Place your application code here. */
  39:.\main.c      ****         EnableOutput = 1;
  40:.\main.c      ****         /*if (Pin_2_Read() == 1)
  41:.\main.c      ****         {
  42:.\main.c      ****             EnableOutput = 1;
  43:.\main.c      ****             tone = 5000;
  44:.\main.c      ****         } else if (Pin_3_Read() == 1)
  45:.\main.c      ****         {
  46:.\main.c      ****           //blah   
  47:.\main.c      ****         } else
  48:.\main.c      ****         {
  49:.\main.c      ****             EnableOutput = 1;//fixme;   
  50:.\main.c      ****         }*/
  51:.\main.c      ****     }
  52:.\main.c      **** }
  53:.\main.c      **** 
  54:.\main.c      **** float frequencies[] = {262.0, 278.1, 292.8, 314.13, 327.5, 344.3, 372.3, 392.0, 416.4, 437.7, 467.4
  55:.\main.c      **** 
  56:.\main.c      **** void DacSet() // runs at 50 kHz
  57:.\main.c      **** {
  36              		.loc 1 57 0
  37              		.cfi_startproc
  38              		@ args = 0, pretend = 0, frame = 0
  39              		@ frame_needed = 0, uses_anonymous_args = 0
  40 0000 F8B5     		push	{r3, r4, r5, r6, r7, lr}
  41              		.cfi_def_cfa_offset 24
  42              		.cfi_offset 3, -24
  43              		.cfi_offset 4, -20
  44              		.cfi_offset 5, -16
  45              		.cfi_offset 6, -12
  46              		.cfi_offset 7, -8
  47              		.cfi_offset 14, -4
  58:.\main.c      ****     //CyDelayUs(10);
  59:.\main.c      ****     if (EnableOutput)
  48              		.loc 1 59 0
  49 0002 B14B     		ldr	r3, .L20+16
  50 0004 1B78     		ldrb	r3, [r3]	@ zero_extendqisi2
  51 0006 002B     		cmp	r3, #0
  52 0008 00F0C681 		beq	.L1
  60:.\main.c      ****     {
  61:.\main.c      ****         if (C_Read() > 0) {
  53              		.loc 1 61 0
ARM GAS  C:\Users\floof\AppData\Local\Temp\ccjhebsl.s 			page 3


  54 000c FFF7FEFF 		bl	C_Read
  55              	.LVL0:
  56 0010 D8B1     		cbz	r0, .L3
  62:.\main.c      ****             theta += 2 * 3.14159 * frequencies[0] * (1/16000.0);
  57              		.loc 1 62 0
  58 0012 AE4B     		ldr	r3, .L20+20
  59 0014 1868     		ldr	r0, [r3]	@ float
  60 0016 FFF7FEFF 		bl	__aeabi_f2d
  61              	.LVL1:
  62 001a A7A3     		adr	r3, .L20
  63 001c D3E90023 		ldrd	r2, [r3]
  64 0020 FFF7FEFF 		bl	__aeabi_dmul
  65              	.LVL2:
  66 0024 A6A3     		adr	r3, .L20+8
  67 0026 D3E90023 		ldrd	r2, [r3]
  68 002a FFF7FEFF 		bl	__aeabi_dmul
  69              	.LVL3:
  70 002e 0646     		mov	r6, r0
  71 0030 0F46     		mov	r7, r1
  72 0032 A54C     		ldr	r4, .L20+16
  73 0034 6068     		ldr	r0, [r4, #4]	@ float
  74 0036 FFF7FEFF 		bl	__aeabi_f2d
  75              	.LVL4:
  76 003a 3246     		mov	r2, r6
  77 003c 3B46     		mov	r3, r7
  78 003e FFF7FEFF 		bl	__aeabi_dadd
  79              	.LVL5:
  80 0042 FFF7FEFF 		bl	__aeabi_d2f
  81              	.LVL6:
  82 0046 6060     		str	r0, [r4, #4]	@ float
  83 0048 7FE1     		b	.L4
  84              	.L3:
  63:.\main.c      ****         }
  64:.\main.c      ****         else if (CS_Read() > 0) {
  85              		.loc 1 64 0
  86 004a FFF7FEFF 		bl	CS_Read
  87              	.LVL7:
  88 004e D8B1     		cbz	r0, .L5
  65:.\main.c      ****             theta += 2 * 3.14159 * frequencies[1] * (1/16000.0);
  89              		.loc 1 65 0
  90 0050 9E4B     		ldr	r3, .L20+20
  91 0052 5868     		ldr	r0, [r3, #4]	@ float
  92 0054 FFF7FEFF 		bl	__aeabi_f2d
  93              	.LVL8:
  94 0058 97A3     		adr	r3, .L20
  95 005a D3E90023 		ldrd	r2, [r3]
  96 005e FFF7FEFF 		bl	__aeabi_dmul
  97              	.LVL9:
  98 0062 97A3     		adr	r3, .L20+8
  99 0064 D3E90023 		ldrd	r2, [r3]
 100 0068 FFF7FEFF 		bl	__aeabi_dmul
 101              	.LVL10:
 102 006c 0646     		mov	r6, r0
 103 006e 0F46     		mov	r7, r1
 104 0070 954C     		ldr	r4, .L20+16
 105 0072 6068     		ldr	r0, [r4, #4]	@ float
 106 0074 FFF7FEFF 		bl	__aeabi_f2d
ARM GAS  C:\Users\floof\AppData\Local\Temp\ccjhebsl.s 			page 4


 107              	.LVL11:
 108 0078 3246     		mov	r2, r6
 109 007a 3B46     		mov	r3, r7
 110 007c FFF7FEFF 		bl	__aeabi_dadd
 111              	.LVL12:
 112 0080 FFF7FEFF 		bl	__aeabi_d2f
 113              	.LVL13:
 114 0084 6060     		str	r0, [r4, #4]	@ float
 115 0086 60E1     		b	.L4
 116              	.L5:
  66:.\main.c      ****         }
  67:.\main.c      ****         else if (D_Read() > 0) {
 117              		.loc 1 67 0
 118 0088 FFF7FEFF 		bl	D_Read
 119              	.LVL14:
 120 008c D8B1     		cbz	r0, .L6
  68:.\main.c      ****             theta += 2 * 3.14159 * frequencies[2] * (1/16000.0);
 121              		.loc 1 68 0
 122 008e 8F4B     		ldr	r3, .L20+20
 123 0090 9868     		ldr	r0, [r3, #8]	@ float
 124 0092 FFF7FEFF 		bl	__aeabi_f2d
 125              	.LVL15:
 126 0096 88A3     		adr	r3, .L20
 127 0098 D3E90023 		ldrd	r2, [r3]
 128 009c FFF7FEFF 		bl	__aeabi_dmul
 129              	.LVL16:
 130 00a0 87A3     		adr	r3, .L20+8
 131 00a2 D3E90023 		ldrd	r2, [r3]
 132 00a6 FFF7FEFF 		bl	__aeabi_dmul
 133              	.LVL17:
 134 00aa 0646     		mov	r6, r0
 135 00ac 0F46     		mov	r7, r1
 136 00ae 864C     		ldr	r4, .L20+16
 137 00b0 6068     		ldr	r0, [r4, #4]	@ float
 138 00b2 FFF7FEFF 		bl	__aeabi_f2d
 139              	.LVL18:
 140 00b6 3246     		mov	r2, r6
 141 00b8 3B46     		mov	r3, r7
 142 00ba FFF7FEFF 		bl	__aeabi_dadd
 143              	.LVL19:
 144 00be FFF7FEFF 		bl	__aeabi_d2f
 145              	.LVL20:
 146 00c2 6060     		str	r0, [r4, #4]	@ float
 147 00c4 41E1     		b	.L4
 148              	.L6:
  69:.\main.c      ****         }
  70:.\main.c      ****         else if (DS_Read() > 0) {
 149              		.loc 1 70 0
 150 00c6 FFF7FEFF 		bl	DS_Read
 151              	.LVL21:
 152 00ca D8B1     		cbz	r0, .L7
  71:.\main.c      ****             theta += 2 * 3.14159 * frequencies[3] * (1/16000.0);
 153              		.loc 1 71 0
 154 00cc 7F4B     		ldr	r3, .L20+20
 155 00ce D868     		ldr	r0, [r3, #12]	@ float
 156 00d0 FFF7FEFF 		bl	__aeabi_f2d
 157              	.LVL22:
ARM GAS  C:\Users\floof\AppData\Local\Temp\ccjhebsl.s 			page 5


 158 00d4 78A3     		adr	r3, .L20
 159 00d6 D3E90023 		ldrd	r2, [r3]
 160 00da FFF7FEFF 		bl	__aeabi_dmul
 161              	.LVL23:
 162 00de 78A3     		adr	r3, .L20+8
 163 00e0 D3E90023 		ldrd	r2, [r3]
 164 00e4 FFF7FEFF 		bl	__aeabi_dmul
 165              	.LVL24:
 166 00e8 0646     		mov	r6, r0
 167 00ea 0F46     		mov	r7, r1
 168 00ec 764C     		ldr	r4, .L20+16
 169 00ee 6068     		ldr	r0, [r4, #4]	@ float
 170 00f0 FFF7FEFF 		bl	__aeabi_f2d
 171              	.LVL25:
 172 00f4 3246     		mov	r2, r6
 173 00f6 3B46     		mov	r3, r7
 174 00f8 FFF7FEFF 		bl	__aeabi_dadd
 175              	.LVL26:
 176 00fc FFF7FEFF 		bl	__aeabi_d2f
 177              	.LVL27:
 178 0100 6060     		str	r0, [r4, #4]	@ float
 179 0102 22E1     		b	.L4
 180              	.L7:
  72:.\main.c      ****         }
  73:.\main.c      ****         else if (E_Read() > 0) {
 181              		.loc 1 73 0
 182 0104 FFF7FEFF 		bl	E_Read
 183              	.LVL28:
 184 0108 D8B1     		cbz	r0, .L8
  74:.\main.c      ****             theta += 2 * 3.14159 * frequencies[4] * (1/16000.0);
 185              		.loc 1 74 0
 186 010a 704B     		ldr	r3, .L20+20
 187 010c 1869     		ldr	r0, [r3, #16]	@ float
 188 010e FFF7FEFF 		bl	__aeabi_f2d
 189              	.LVL29:
 190 0112 69A3     		adr	r3, .L20
 191 0114 D3E90023 		ldrd	r2, [r3]
 192 0118 FFF7FEFF 		bl	__aeabi_dmul
 193              	.LVL30:
 194 011c 68A3     		adr	r3, .L20+8
 195 011e D3E90023 		ldrd	r2, [r3]
 196 0122 FFF7FEFF 		bl	__aeabi_dmul
 197              	.LVL31:
 198 0126 0646     		mov	r6, r0
 199 0128 0F46     		mov	r7, r1
 200 012a 674C     		ldr	r4, .L20+16
 201 012c 6068     		ldr	r0, [r4, #4]	@ float
 202 012e FFF7FEFF 		bl	__aeabi_f2d
 203              	.LVL32:
 204 0132 3246     		mov	r2, r6
 205 0134 3B46     		mov	r3, r7
 206 0136 FFF7FEFF 		bl	__aeabi_dadd
 207              	.LVL33:
 208 013a FFF7FEFF 		bl	__aeabi_d2f
 209              	.LVL34:
 210 013e 6060     		str	r0, [r4, #4]	@ float
 211 0140 03E1     		b	.L4
ARM GAS  C:\Users\floof\AppData\Local\Temp\ccjhebsl.s 			page 6


 212              	.L8:
  75:.\main.c      ****         }
  76:.\main.c      ****         else if (F_Read() > 0) {
 213              		.loc 1 76 0
 214 0142 FFF7FEFF 		bl	F_Read
 215              	.LVL35:
 216 0146 D8B1     		cbz	r0, .L9
  77:.\main.c      ****             theta += 2 * 3.14159 * frequencies[5] * (1/16000.0);
 217              		.loc 1 77 0
 218 0148 604B     		ldr	r3, .L20+20
 219 014a 5869     		ldr	r0, [r3, #20]	@ float
 220 014c FFF7FEFF 		bl	__aeabi_f2d
 221              	.LVL36:
 222 0150 59A3     		adr	r3, .L20
 223 0152 D3E90023 		ldrd	r2, [r3]
 224 0156 FFF7FEFF 		bl	__aeabi_dmul
 225              	.LVL37:
 226 015a 59A3     		adr	r3, .L20+8
 227 015c D3E90023 		ldrd	r2, [r3]
 228 0160 FFF7FEFF 		bl	__aeabi_dmul
 229              	.LVL38:
 230 0164 0646     		mov	r6, r0
 231 0166 0F46     		mov	r7, r1
 232 0168 574C     		ldr	r4, .L20+16
 233 016a 6068     		ldr	r0, [r4, #4]	@ float
 234 016c FFF7FEFF 		bl	__aeabi_f2d
 235              	.LVL39:
 236 0170 3246     		mov	r2, r6
 237 0172 3B46     		mov	r3, r7
 238 0174 FFF7FEFF 		bl	__aeabi_dadd
 239              	.LVL40:
 240 0178 FFF7FEFF 		bl	__aeabi_d2f
 241              	.LVL41:
 242 017c 6060     		str	r0, [r4, #4]	@ float
 243 017e E4E0     		b	.L4
 244              	.L9:
  78:.\main.c      ****         }
  79:.\main.c      ****         else if (FS_Read() > 0) {
 245              		.loc 1 79 0
 246 0180 FFF7FEFF 		bl	FS_Read
 247              	.LVL42:
 248 0184 D8B1     		cbz	r0, .L10
  80:.\main.c      ****             theta += 2 * 3.14159 * frequencies[6] * (1/16000.0);
 249              		.loc 1 80 0
 250 0186 514B     		ldr	r3, .L20+20
 251 0188 9869     		ldr	r0, [r3, #24]	@ float
 252 018a FFF7FEFF 		bl	__aeabi_f2d
 253              	.LVL43:
 254 018e 4AA3     		adr	r3, .L20
 255 0190 D3E90023 		ldrd	r2, [r3]
 256 0194 FFF7FEFF 		bl	__aeabi_dmul
 257              	.LVL44:
 258 0198 49A3     		adr	r3, .L20+8
 259 019a D3E90023 		ldrd	r2, [r3]
 260 019e FFF7FEFF 		bl	__aeabi_dmul
 261              	.LVL45:
 262 01a2 0646     		mov	r6, r0
ARM GAS  C:\Users\floof\AppData\Local\Temp\ccjhebsl.s 			page 7


 263 01a4 0F46     		mov	r7, r1
 264 01a6 484C     		ldr	r4, .L20+16
 265 01a8 6068     		ldr	r0, [r4, #4]	@ float
 266 01aa FFF7FEFF 		bl	__aeabi_f2d
 267              	.LVL46:
 268 01ae 3246     		mov	r2, r6
 269 01b0 3B46     		mov	r3, r7
 270 01b2 FFF7FEFF 		bl	__aeabi_dadd
 271              	.LVL47:
 272 01b6 FFF7FEFF 		bl	__aeabi_d2f
 273              	.LVL48:
 274 01ba 6060     		str	r0, [r4, #4]	@ float
 275 01bc C5E0     		b	.L4
 276              	.L10:
  81:.\main.c      ****         }
  82:.\main.c      ****         else if (G_Read() > 0) {
 277              		.loc 1 82 0
 278 01be FFF7FEFF 		bl	G_Read
 279              	.LVL49:
 280 01c2 D8B1     		cbz	r0, .L11
  83:.\main.c      ****             theta += 2 * 3.14159 * frequencies[7] * (1/16000.0);
 281              		.loc 1 83 0
 282 01c4 414B     		ldr	r3, .L20+20
 283 01c6 D869     		ldr	r0, [r3, #28]	@ float
 284 01c8 FFF7FEFF 		bl	__aeabi_f2d
 285              	.LVL50:
 286 01cc 3AA3     		adr	r3, .L20
 287 01ce D3E90023 		ldrd	r2, [r3]
 288 01d2 FFF7FEFF 		bl	__aeabi_dmul
 289              	.LVL51:
 290 01d6 3AA3     		adr	r3, .L20+8
 291 01d8 D3E90023 		ldrd	r2, [r3]
 292 01dc FFF7FEFF 		bl	__aeabi_dmul
 293              	.LVL52:
 294 01e0 0646     		mov	r6, r0
 295 01e2 0F46     		mov	r7, r1
 296 01e4 384C     		ldr	r4, .L20+16
 297 01e6 6068     		ldr	r0, [r4, #4]	@ float
 298 01e8 FFF7FEFF 		bl	__aeabi_f2d
 299              	.LVL53:
 300 01ec 3246     		mov	r2, r6
 301 01ee 3B46     		mov	r3, r7
 302 01f0 FFF7FEFF 		bl	__aeabi_dadd
 303              	.LVL54:
 304 01f4 FFF7FEFF 		bl	__aeabi_d2f
 305              	.LVL55:
 306 01f8 6060     		str	r0, [r4, #4]	@ float
 307 01fa A6E0     		b	.L4
 308              	.L11:
  84:.\main.c      ****         }
  85:.\main.c      ****         else if (GS_Read() > 0) {
 309              		.loc 1 85 0
 310 01fc FFF7FEFF 		bl	GS_Read
 311              	.LVL56:
 312 0200 D8B1     		cbz	r0, .L12
  86:.\main.c      ****             theta += 2 * 3.14159 * frequencies[8] * (1/16000.0);
 313              		.loc 1 86 0
ARM GAS  C:\Users\floof\AppData\Local\Temp\ccjhebsl.s 			page 8


 314 0202 324B     		ldr	r3, .L20+20
 315 0204 186A     		ldr	r0, [r3, #32]	@ float
 316 0206 FFF7FEFF 		bl	__aeabi_f2d
 317              	.LVL57:
 318 020a 2BA3     		adr	r3, .L20
 319 020c D3E90023 		ldrd	r2, [r3]
 320 0210 FFF7FEFF 		bl	__aeabi_dmul
 321              	.LVL58:
 322 0214 2AA3     		adr	r3, .L20+8
 323 0216 D3E90023 		ldrd	r2, [r3]
 324 021a FFF7FEFF 		bl	__aeabi_dmul
 325              	.LVL59:
 326 021e 0646     		mov	r6, r0
 327 0220 0F46     		mov	r7, r1
 328 0222 294C     		ldr	r4, .L20+16
 329 0224 6068     		ldr	r0, [r4, #4]	@ float
 330 0226 FFF7FEFF 		bl	__aeabi_f2d
 331              	.LVL60:
 332 022a 3246     		mov	r2, r6
 333 022c 3B46     		mov	r3, r7
 334 022e FFF7FEFF 		bl	__aeabi_dadd
 335              	.LVL61:
 336 0232 FFF7FEFF 		bl	__aeabi_d2f
 337              	.LVL62:
 338 0236 6060     		str	r0, [r4, #4]	@ float
 339 0238 87E0     		b	.L4
 340              	.L12:
  87:.\main.c      ****         }
  88:.\main.c      ****         else if (A_Read() > 0) {
 341              		.loc 1 88 0
 342 023a FFF7FEFF 		bl	A_Read
 343              	.LVL63:
 344 023e D8B1     		cbz	r0, .L13
  89:.\main.c      ****             theta += 2 * 3.14159 * frequencies[9] * (1/16000.0);
 345              		.loc 1 89 0
 346 0240 224B     		ldr	r3, .L20+20
 347 0242 586A     		ldr	r0, [r3, #36]	@ float
 348 0244 FFF7FEFF 		bl	__aeabi_f2d
 349              	.LVL64:
 350 0248 1BA3     		adr	r3, .L20
 351 024a D3E90023 		ldrd	r2, [r3]
 352 024e FFF7FEFF 		bl	__aeabi_dmul
 353              	.LVL65:
 354 0252 1BA3     		adr	r3, .L20+8
 355 0254 D3E90023 		ldrd	r2, [r3]
 356 0258 FFF7FEFF 		bl	__aeabi_dmul
 357              	.LVL66:
 358 025c 0646     		mov	r6, r0
 359 025e 0F46     		mov	r7, r1
 360 0260 194C     		ldr	r4, .L20+16
 361 0262 6068     		ldr	r0, [r4, #4]	@ float
 362 0264 FFF7FEFF 		bl	__aeabi_f2d
 363              	.LVL67:
 364 0268 3246     		mov	r2, r6
 365 026a 3B46     		mov	r3, r7
 366 026c FFF7FEFF 		bl	__aeabi_dadd
 367              	.LVL68:
ARM GAS  C:\Users\floof\AppData\Local\Temp\ccjhebsl.s 			page 9


 368 0270 FFF7FEFF 		bl	__aeabi_d2f
 369              	.LVL69:
 370 0274 6060     		str	r0, [r4, #4]	@ float
 371 0276 68E0     		b	.L4
 372              	.L13:
  90:.\main.c      ****         }
  91:.\main.c      ****         else if (AS_Read() > 0) {
 373              		.loc 1 91 0
 374 0278 FFF7FEFF 		bl	AS_Read
 375              	.LVL70:
 376 027c 40B3     		cbz	r0, .L14
  92:.\main.c      ****             theta += 2 * 3.14159 * frequencies[10] * (1/16000.0);
 377              		.loc 1 92 0
 378 027e 134B     		ldr	r3, .L20+20
 379 0280 986A     		ldr	r0, [r3, #40]	@ float
 380 0282 FFF7FEFF 		bl	__aeabi_f2d
 381              	.LVL71:
 382 0286 0CA3     		adr	r3, .L20
 383 0288 D3E90023 		ldrd	r2, [r3]
 384 028c FFF7FEFF 		bl	__aeabi_dmul
 385              	.LVL72:
 386 0290 0BA3     		adr	r3, .L20+8
 387 0292 D3E90023 		ldrd	r2, [r3]
 388 0296 FFF7FEFF 		bl	__aeabi_dmul
 389              	.LVL73:
 390 029a 0646     		mov	r6, r0
 391 029c 0F46     		mov	r7, r1
 392 029e 0A4C     		ldr	r4, .L20+16
 393 02a0 6068     		ldr	r0, [r4, #4]	@ float
 394 02a2 FFF7FEFF 		bl	__aeabi_f2d
 395              	.LVL74:
 396 02a6 3246     		mov	r2, r6
 397 02a8 3B46     		mov	r3, r7
 398 02aa FFF7FEFF 		bl	__aeabi_dadd
 399              	.LVL75:
 400 02ae FFF7FEFF 		bl	__aeabi_d2f
 401              	.LVL76:
 402 02b2 6060     		str	r0, [r4, #4]	@ float
 403 02b4 49E0     		b	.L4
 404              	.L21:
 405 02b6 00BF     		.align	3
 406              	.L20:
 407 02b8 6E861BF0 		.word	-266631570
 408 02bc F9211940 		.word	1075388921
 409 02c0 FCA9F1D2 		.word	-755914244
 410 02c4 4D62103F 		.word	1058038349
 411 02c8 00000000 		.word	.LANCHOR0
 412 02cc 00000000 		.word	.LANCHOR1
 413              	.L14:
  93:.\main.c      ****         }
  94:.\main.c      ****         else if (B_Read() > 0) {
 414              		.loc 1 94 0
 415 02d0 FFF7FEFF 		bl	B_Read
 416              	.LVL77:
 417 02d4 D8B1     		cbz	r0, .L15
  95:.\main.c      ****             theta += 2 * 3.14159 * frequencies[11] * (1/16000.0);
 418              		.loc 1 95 0
ARM GAS  C:\Users\floof\AppData\Local\Temp\ccjhebsl.s 			page 10


 419 02d6 364B     		ldr	r3, .L22+16
 420 02d8 D86A     		ldr	r0, [r3, #44]	@ float
 421 02da FFF7FEFF 		bl	__aeabi_f2d
 422              	.LVL78:
 423 02de 30A3     		adr	r3, .L22
 424 02e0 D3E90023 		ldrd	r2, [r3]
 425 02e4 FFF7FEFF 		bl	__aeabi_dmul
 426              	.LVL79:
 427 02e8 2FA3     		adr	r3, .L22+8
 428 02ea D3E90023 		ldrd	r2, [r3]
 429 02ee FFF7FEFF 		bl	__aeabi_dmul
 430              	.LVL80:
 431 02f2 0646     		mov	r6, r0
 432 02f4 0F46     		mov	r7, r1
 433 02f6 2F4C     		ldr	r4, .L22+20
 434 02f8 6068     		ldr	r0, [r4, #4]	@ float
 435 02fa FFF7FEFF 		bl	__aeabi_f2d
 436              	.LVL81:
 437 02fe 3246     		mov	r2, r6
 438 0300 3B46     		mov	r3, r7
 439 0302 FFF7FEFF 		bl	__aeabi_dadd
 440              	.LVL82:
 441 0306 FFF7FEFF 		bl	__aeabi_d2f
 442              	.LVL83:
 443 030a 6060     		str	r0, [r4, #4]	@ float
 444 030c 1DE0     		b	.L4
 445              	.L15:
  96:.\main.c      ****         }
  97:.\main.c      ****         else if (UC_Read() > 0) {
 446              		.loc 1 97 0
 447 030e FFF7FEFF 		bl	UC_Read
 448              	.LVL84:
 449 0312 D0B1     		cbz	r0, .L4
  98:.\main.c      ****             theta += 2 * 3.14159 * frequencies[12] * (1/16000.0);
 450              		.loc 1 98 0
 451 0314 264B     		ldr	r3, .L22+16
 452 0316 186B     		ldr	r0, [r3, #48]	@ float
 453 0318 FFF7FEFF 		bl	__aeabi_f2d
 454              	.LVL85:
 455 031c 20A3     		adr	r3, .L22
 456 031e D3E90023 		ldrd	r2, [r3]
 457 0322 FFF7FEFF 		bl	__aeabi_dmul
 458              	.LVL86:
 459 0326 20A3     		adr	r3, .L22+8
 460 0328 D3E90023 		ldrd	r2, [r3]
 461 032c FFF7FEFF 		bl	__aeabi_dmul
 462              	.LVL87:
 463 0330 0646     		mov	r6, r0
 464 0332 0F46     		mov	r7, r1
 465 0334 1F4C     		ldr	r4, .L22+20
 466 0336 6068     		ldr	r0, [r4, #4]	@ float
 467 0338 FFF7FEFF 		bl	__aeabi_f2d
 468              	.LVL88:
 469 033c 3246     		mov	r2, r6
 470 033e 3B46     		mov	r3, r7
 471 0340 FFF7FEFF 		bl	__aeabi_dadd
 472              	.LVL89:
ARM GAS  C:\Users\floof\AppData\Local\Temp\ccjhebsl.s 			page 11


 473 0344 FFF7FEFF 		bl	__aeabi_d2f
 474              	.LVL90:
 475 0348 6060     		str	r0, [r4, #4]	@ float
 476              	.L4:
  99:.\main.c      ****         }
 100:.\main.c      **** 
 101:.\main.c      ****         if (theta > 2 * 3.14159) {
 477              		.loc 1 101 0
 478 034a 1A4B     		ldr	r3, .L22+20
 479 034c 5868     		ldr	r0, [r3, #4]	@ float
 480 034e FFF7FEFF 		bl	__aeabi_f2d
 481              	.LVL91:
 482 0352 0446     		mov	r4, r0
 483 0354 0D46     		mov	r5, r1
 484 0356 12A3     		adr	r3, .L22
 485 0358 D3E90023 		ldrd	r2, [r3]
 486 035c FFF7FEFF 		bl	__aeabi_dcmpgt
 487              	.LVL92:
 488 0360 50B1     		cbz	r0, .L16
 102:.\main.c      ****             theta -= 2 * 3.14159;
 489              		.loc 1 102 0
 490 0362 2046     		mov	r0, r4
 491 0364 2946     		mov	r1, r5
 492 0366 0EA3     		adr	r3, .L22
 493 0368 D3E90023 		ldrd	r2, [r3]
 494 036c FFF7FEFF 		bl	__aeabi_dsub
 495              	.LVL93:
 496 0370 FFF7FEFF 		bl	__aeabi_d2f
 497              	.LVL94:
 498 0374 0F4B     		ldr	r3, .L22+20
 499 0376 5860     		str	r0, [r3, #4]	@ float
 500              	.L16:
 103:.\main.c      ****         }
 104:.\main.c      **** 
 105:.\main.c      ****         DacCode = 127 + 120 * sinf(theta);
 501              		.loc 1 105 0
 502 0378 0E4C     		ldr	r4, .L22+20
 503 037a 6068     		ldr	r0, [r4, #4]	@ float
 504 037c FFF7FEFF 		bl	sinf
 505              	.LVL95:
 506 0380 0D49     		ldr	r1, .L22+24
 507 0382 FFF7FEFF 		bl	__aeabi_fmul
 508              	.LVL96:
 509 0386 0D49     		ldr	r1, .L22+28
 510 0388 FFF7FEFF 		bl	__aeabi_fadd
 511              	.LVL97:
 512 038c FFF7FEFF 		bl	__aeabi_f2uiz
 513              	.LVL98:
 514 0390 C0B2     		uxtb	r0, r0
 515 0392 2072     		strb	r0, [r4, #8]
 106:.\main.c      **** 
 107:.\main.c      ****         VDAC8_1_SetValue(DacCode);
 516              		.loc 1 107 0
 517 0394 FFF7FEFF 		bl	VDAC8_1_SetValue
 518              	.LVL99:
 519              	.L1:
 520 0398 F8BD     		pop	{r3, r4, r5, r6, r7, pc}
ARM GAS  C:\Users\floof\AppData\Local\Temp\ccjhebsl.s 			page 12


 521              	.L23:
 522 039a 00BFAFF3 		.align	3
 522      0080
 523              	.L22:
 524 03a0 6E861BF0 		.word	-266631570
 525 03a4 F9211940 		.word	1075388921
 526 03a8 FCA9F1D2 		.word	-755914244
 527 03ac 4D62103F 		.word	1058038349
 528 03b0 00000000 		.word	.LANCHOR1
 529 03b4 00000000 		.word	.LANCHOR0
 530 03b8 0000F042 		.word	1123024896
 531 03bc 0000FE42 		.word	1123942400
 532              		.cfi_endproc
 533              	.LFE64:
 534              		.size	DacSet, .-DacSet
 535              		.section	.text.main,"ax",%progbits
 536              		.align	2
 537              		.global	main
 538              		.thumb
 539              		.thumb_func
 540              		.type	main, %function
 541              	main:
 542              	.LFB63:
  23:.\main.c      ****    
 543              		.loc 1 23 0
 544              		.cfi_startproc
 545              		@ Volatile: function does not return.
 546              		@ args = 0, pretend = 0, frame = 0
 547              		@ frame_needed = 0, uses_anonymous_args = 0
 548 0000 08B5     		push	{r3, lr}
 549              		.cfi_def_cfa_offset 8
 550              		.cfi_offset 3, -8
 551              		.cfi_offset 14, -4
  26:.\main.c      ****     isr_1_StartEx(DacSet);
 552              		.loc 1 26 0
 553 0002 FFF7FEFF 		bl	VDAC8_1_Start
 554              	.LVL100:
  27:.\main.c      ****     
 555              		.loc 1 27 0
 556 0006 0448     		ldr	r0, .L27
 557 0008 FFF7FEFF 		bl	isr_1_StartEx
 558              	.LVL101:
  34:.\main.c      ****     
 559              		.loc 1 34 0
 560              	@ 34 ".\main.c" 1
 561 000c 62B6     		CPSIE   i
 562              	@ 0 "" 2
 563              		.thumb
 564              	.L25:
  39:.\main.c      ****         /*if (Pin_2_Read() == 1)
 565              		.loc 1 39 0 discriminator 1
 566 000e 0122     		movs	r2, #1
 567 0010 024B     		ldr	r3, .L27+4
 568 0012 1A70     		strb	r2, [r3]
  51:.\main.c      **** }
 569              		.loc 1 51 0 discriminator 1
 570 0014 FBE7     		b	.L25
ARM GAS  C:\Users\floof\AppData\Local\Temp\ccjhebsl.s 			page 13


 571              	.L28:
 572 0016 00BF     		.align	2
 573              	.L27:
 574 0018 00000000 		.word	DacSet
 575 001c 00000000 		.word	.LANCHOR0
 576              		.cfi_endproc
 577              	.LFE63:
 578              		.size	main, .-main
 579              		.global	frequencies
 580              		.global	UpDown
 581              		.global	EnableOutput
 582              		.global	DacCode
 583              		.global	theta
 584              		.data
 585              		.align	2
 586              		.set	.LANCHOR1,. + 0
 587              		.type	frequencies, %object
 588              		.size	frequencies, 52
 589              	frequencies:
 590 0000 00008343 		.word	1132658688
 591 0004 CD0C8B43 		.word	1133186253
 592 0008 66669243 		.word	1133667942
 593 000c A4109D43 		.word	1134366884
 594 0010 00C0A343 		.word	1134804992
 595 0014 6626AC43 		.word	1135355494
 596 0018 6626BA43 		.word	1136272998
 597 001c 0000C443 		.word	1136918528
 598 0020 3333D043 		.word	1137718067
 599 0024 9AD9DA43 		.word	1138416026
 600 0028 33B3E943 		.word	1139389235
 601 002c 9A19FB43 		.word	1140529562
 602 0030 00000344 		.word	1141047296
 603              		.bss
 604              		.align	2
 605              		.set	.LANCHOR0,. + 0
 606              		.type	EnableOutput, %object
 607              		.size	EnableOutput, 1
 608              	EnableOutput:
 609 0000 00       		.space	1
 610 0001 000000   		.space	3
 611              		.type	theta, %object
 612              		.size	theta, 4
 613              	theta:
 614 0004 00000000 		.space	4
 615              		.type	DacCode, %object
 616              		.size	DacCode, 1
 617              	DacCode:
 618 0008 00       		.space	1
 619              		.type	UpDown, %object
 620              		.size	UpDown, 1
 621              	UpDown:
 622 0009 00       		.space	1
 623 000a 0000     		.text
 624              	.Letext0:
 625              		.file 2 "c:\\program files (x86)\\cypress\\psoc creator\\3.3\\psoc creator\\import\\gnu\\arm\\4.9.
 626              		.file 3 "c:\\program files (x86)\\cypress\\psoc creator\\3.3\\psoc creator\\import\\gnu\\arm\\4.9.
 627              		.file 4 "Generated_Source\\PSoC5/cytypes.h"
ARM GAS  C:\Users\floof\AppData\Local\Temp\ccjhebsl.s 			page 14


 628              		.file 5 "Generated_Source\\PSoC5/core_cm3.h"
 629              		.file 6 "Generated_Source\\PSoC5/C.h"
 630              		.file 7 "Generated_Source\\PSoC5/CS.h"
 631              		.file 8 "Generated_Source\\PSoC5/D.h"
 632              		.file 9 "Generated_Source\\PSoC5/DS.h"
 633              		.file 10 "Generated_Source\\PSoC5/E.h"
 634              		.file 11 "Generated_Source\\PSoC5/F.h"
 635              		.file 12 "Generated_Source\\PSoC5/FS.h"
 636              		.file 13 "Generated_Source\\PSoC5/G.h"
 637              		.file 14 "Generated_Source\\PSoC5/GS.h"
 638              		.file 15 "Generated_Source\\PSoC5/A.h"
 639              		.file 16 "Generated_Source\\PSoC5/AS.h"
 640              		.file 17 "Generated_Source\\PSoC5/B.h"
 641              		.file 18 "Generated_Source\\PSoC5/UC.h"
 642              		.file 19 "c:\\program files (x86)\\cypress\\psoc creator\\3.3\\psoc creator\\import\\gnu\\arm\\4.9
 643              		.file 20 "Generated_Source\\PSoC5/VDAC8_1.h"
 644              		.file 21 "Generated_Source\\PSoC5/isr_1.h"